; Function Attrs: nounwind sspstrong uwtable
define internal void @aio_ctx_finalize(ptr noundef %source) #0 {
entry:
  %thread_pool = getelementptr inbounds nuw i8, ptr %source, i64 240
  %0 = load ptr, ptr %thread_pool, align 8
  tail call void @thread_pool_free(ptr noundef %0) #13
  %linux_io_uring = getelementptr inbounds nuw i8, ptr %source, i64 248
  %1 = load ptr, ptr %linux_io_uring, align 8
  %tobool.not = icmp eq ptr %1, null
  br i1 %tobool.not, label %if.end, label %if.then

if.then:                                          ; preds = %entry
  tail call void @luring_detach_aio_context(ptr noundef nonnull %1, ptr noundef nonnull %source) #13
  %2 = load ptr, ptr %linux_io_uring, align 8
  tail call void @luring_cleanup(ptr noundef %2) #13
  store ptr null, ptr %linux_io_uring, align 8
  br label %if.end

if.end:                                           ; preds = %if.then, %entry
  %scheduled_coroutines = getelementptr inbounds nuw i8, ptr %source, i64 216
  %3 = load ptr, ptr %scheduled_coroutines, align 8
  %cmp = icmp eq ptr %3, null
  br i1 %cmp, label %if.end5, label %if.else

if.else:                                          ; preds = %if.end
  tail call void @__assert_fail(ptr noundef nonnull @.str.12, ptr noundef nonnull @.str, i32 noundef 387, ptr noundef nonnull @__PRETTY_FUNCTION__.aio_ctx_finalize) #14
  unreachable

if.end5:                                          ; preds = %if.end
  %co_schedule_bh = getelementptr inbounds nuw i8, ptr %source, i64 224
  %4 = load ptr, ptr %co_schedule_bh, align 8
  %5 = load ptr, ptr %4, align 8
  %flags.i.i = getelementptr inbounds nuw i8, ptr %4, i64 40
  %6 = atomicrmw or ptr %flags.i.i, i32 5 seq_cst, align 8
  %and.i.i = and i32 %6, 1
  %tobool.not.i.i = icmp eq i32 %and.i.i, 0
  br i1 %tobool.not.i.i, label %do.body2.preheader.i.i, label %if.end.i.i

do.body2.preheader.i.i:                           ; preds = %if.end5
  %bh_list.i.i = getelementptr inbounds nuw i8, ptr %5, i64 176
  %next.i.i = getelementptr inbounds nuw i8, ptr %4, i64 32
  %7 = ptrtoint ptr %4 to i64
  br label %do.body2.i.i

do.body2.i.i:                                     ; preds = %do.body2.i.i, %do.body2.preheader.i.i
  %8 = load ptr, ptr %bh_list.i.i, align 8
  store ptr %8, ptr %next.i.i, align 8
  %9 = ptrtoint ptr %8 to i64
  %10 = cmpxchg ptr %bh_list.i.i, i64 %9, i64 %7 seq_cst seq_cst, align 8
  %11 = extractvalue { i64, i1 } %10, 1
  %12 = extractvalue { i64, i1 } %10, 0
  %13 = inttoptr i64 %12 to ptr
  %cmp.not7.i.i = icmp eq ptr %8, %13
  %cmp.not.i.i = select i1 %11, i1 true, i1 %cmp.not7.i.i
  br i1 %cmp.not.i.i, label %if.end.i.i, label %do.body2.i.i, !llvm.loop !5

if.end.i.i:                                       ; preds = %do.body2.i.i, %if.end5
  tail call void asm sideeffect "", "~{memory},~{dirflag},~{fpsr},~{flags}"() #13, !srcloc !7
  fence release
  %notified.i.i.i = getelementptr inbounds nuw i8, ptr %5, i64 200
  store atomic i8 1, ptr %notified.i.i.i monotonic, align 8
  tail call void asm sideeffect "", "~{memory},~{dirflag},~{fpsr},~{flags}"() #13, !srcloc !8
  fence seq_cst
  %notify_me.i.i.i = getelementptr inbounds nuw i8, ptr %5, i64 168
  %14 = load atomic i32, ptr %notify_me.i.i.i monotonic, align 8
  %tobool.not.i.i.i = icmp eq i32 %14, 0
  br i1 %tobool.not.i.i.i, label %qemu_bh_delete.exit, label %if.then.i.i.i

if.then.i.i.i:                                    ; preds = %if.end.i.i
  %notifier.i.i.i = getelementptr inbounds nuw i8, ptr %5, i64 204
  %call.i.i.i = tail call i32 @event_notifier_set(ptr noundef nonnull %notifier.i.i.i) #13
  br label %qemu_bh_delete.exit

qemu_bh_delete.exit:                              ; preds = %if.end.i.i, %if.then.i.i.i
  tail call void @icount_notify_exit() #13
  %bh_slice_list = getelementptr inbounds nuw i8, ptr %source, i64 184
  %15 = load ptr, ptr %bh_slice_list, align 8
  %cmp6 = icmp eq ptr %15, null
  br i1 %cmp6, label %while.cond.preheader, label %if.else8

while.cond.preheader:                             ; preds = %qemu_bh_delete.exit
  %bh_list = getelementptr inbounds nuw i8, ptr %source, i64 176
  %16 = load atomic i64, ptr %bh_list monotonic, align 8
  tail call void asm sideeffect "", "~{memory},~{dirflag},~{fpsr},~{flags}"() #13, !srcloc !9
  %tobool.not.i22 = icmp eq i64 %16, 0
  br i1 %tobool.not.i22, label %while.end, label %aio_bh_dequeue.exit

if.else8:                                         ; preds = %qemu_bh_delete.exit
  tail call void @__assert_fail(ptr noundef nonnull @.str.13, ptr noundef nonnull @.str, i32 noundef 391, ptr noundef nonnull @__PRETTY_FUNCTION__.aio_ctx_finalize) #14
  unreachable

aio_bh_dequeue.exit:                              ; preds = %while.cond.preheader, %if.end17
  %17 = phi i64 [ %24, %if.end17 ], [ %16, %while.cond.preheader ]
  %18 = inttoptr i64 %17 to ptr
  %19 = load ptr, ptr %bh_list, align 8
  %next.i = getelementptr inbounds nuw i8, ptr %19, i64 32
  %20 = load ptr, ptr %next.i, align 8
  store ptr %20, ptr %bh_list, align 8
  store ptr null, ptr %next.i, align 8
  %flags7.i = getelementptr inbounds nuw i8, ptr %18, i64 40
  %21 = atomicrmw and ptr %flags7.i, i32 -20 seq_cst, align 8
  %and = and i32 %21, 4
  %tobool11.not = icmp eq i32 %and, 0
  br i1 %tobool11.not, label %if.then15, label %if.end17

if.then15:                                        ; preds = %aio_bh_dequeue.exit
  %22 = load ptr, ptr @stderr, align 8
  %name = getelementptr inbounds nuw i8, ptr %18, i64 8
  %23 = load ptr, ptr %name, align 8
  %call16 = tail call i32 (ptr, ptr, ...) @fprintf(ptr noundef %22, ptr noundef nonnull @.str.14, ptr noundef nonnull @__func__.aio_ctx_finalize, ptr noundef %23) #15
  tail call void @abort() #14
  unreachable

if.end17:                                         ; preds = %aio_bh_dequeue.exit
  tail call void @g_free(ptr noundef nonnull %18) #13
  %24 = load atomic i64, ptr %bh_list monotonic, align 8
  tail call void asm sideeffect "", "~{memory},~{dirflag},~{fpsr},~{flags}"() #13, !srcloc !9
  %tobool.not.i = icmp eq i64 %24, 0
  br i1 %tobool.not.i, label %while.end, label %aio_bh_dequeue.exit, !llvm.loop !30

while.end:                                        ; preds = %if.end17, %while.cond.preheader
  %notifier = getelementptr inbounds nuw i8, ptr %source, i64 204
  tail call void @aio_set_event_notifier(ptr noundef nonnull %source, ptr noundef nonnull %notifier, ptr noundef null, ptr noundef null, ptr noundef null) #13
  tail call void @event_notifier_cleanup(ptr noundef nonnull %notifier) #13
  %lock = getelementptr inbounds nuw i8, ptr %source, i64 96
  tail call void @qemu_rec_mutex_destroy(ptr noundef nonnull %lock) #13
  %list_lock = getelementptr inbounds nuw i8, ptr %source, i64 172
  tail call void @qemu_lockcnt_destroy(ptr noundef nonnull %list_lock) #13
  %tlg = getelementptr inbounds nuw i8, ptr %source, i64 480
  tail call void @timerlistgroup_deinit(ptr noundef nonnull %tlg) #13
  tail call void @unregister_aiocontext(ptr noundef nonnull %source) #13
  tail call void @aio_context_destroy(ptr noundef nonnull %source) #13
  ret void
}